target datalayout = "e-m:e-p270:32:32-p271:32:32-p272:64:64-i64:64-i128:128-f80:128-n8:16:32:64-S128"
target triple = "x86_64-pc-linux-gnu"

%struct.AV1Decoder = type { %struct.DecoderCodingBlock, %struct.AV1Common, %struct.AVxWorker, %struct.AV1LfSyncData, %struct.AV1LrSyncData, %struct.AV1LrStruct, ptr, i32, ptr, [16 x i8], %struct.ThreadData, ptr, i32, [64 x [64 x %struct.TileBufferDec]], %struct.AV1DecTileMTData, i32, [4 x ptr], i64, i32, i32, i32, i32, i32, i32, i32, i32, i32, i32, i32, i32, i32, i32, i32, i32, i32, i64, %struct.DataBuffer, i32, i32, i32, i32, i32, i32, %struct.EXTERNAL_REFERENCES, %struct.yv12_buffer_config, ptr, i32, i32, ptr, ptr, %struct.AV1DecRowMTInfo, ptr, i32, i32, i32, i32, [8 x i32], i32, i32, i32, %struct.aom_s_frame_info, [28 x i8] }
%struct.DecoderCodingBlock = type { %struct.macroblockd, i32, [2 x ptr], [3 x ptr], [3 x i16], [3 x ptr], [3 x i16], [29 x i8], [29 x i8] }
%struct.macroblockd = type { i32, i32, i32, i8, [3 x %struct.macroblockd_plane], %struct.TileInfo, ptr, i8, i8, i8, i8, ptr, ptr, ptr, ptr, ptr, i32, i32, i32, i32, i32, [2 x ptr], ptr, [3 x ptr], [3 x [32 x i8]], ptr, [32 x i8], ptr, ptr, [32 x i8], [3 x %struct.WienerInfo], [3 x %struct.SgrprojInfo], i8, i8, [29 x [8 x %struct.candidate_mv]], [29 x [8 x i16]], i8, i8, [8 x i8], ptr, i32, [8 x i32], [8 x i32], i32, i32, ptr, ptr, i8, [4 x i8], [4 x i8], [7 x i8], [32768 x i8], %struct.cfl_ctx, [2 x i16], ptr, [2 x ptr] }
%struct.macroblockd_plane = type { i8, i32, i32, %struct.buf_2d, [2 x %struct.buf_2d], ptr, ptr, [8 x [2 x i16]], ptr, i8, i8, [8 x [19 x ptr]], [8 x [19 x ptr]] }
%struct.buf_2d = type { ptr, ptr, i32, i32, i32 }
%struct.TileInfo = type { i32, i32, i32, i32, i32, i32 }
%struct.WienerInfo = type { [8 x i16], [8 x i16] }
%struct.SgrprojInfo = type { i32, [2 x i32] }
%struct.candidate_mv = type { %union.int_mv, %union.int_mv }
%union.int_mv = type { i32 }
%struct.cfl_ctx = type { [1024 x i16], [1024 x i16], [2 x i32], i32, [2 x [32 x i16]], i32, i32, i32, i32, i32, i32 }
%struct.AV1Common = type { %struct.CurrentFrame, %struct.aom_internal_error_info, i32, i32, i32, i32, i32, i32, i8, i8, [33 x i32], i32, ptr, ptr, [8 x i32], %struct.scale_factors, [8 x %struct.scale_factors], [8 x ptr], i32, i32, i32, %struct.FeatureFlags, %struct.CommonModeInfoParams, %struct.CommonQuantParams, %struct.segmentation, ptr, [8 x i8], %struct.loop_filter_info_n, %struct.loopfilter, [3 x %struct.RestorationInfo], ptr, ptr, %struct.yv12_buffer_config, %struct.CdefInfo, %struct.aom_film_grain_t, %struct.DeltaQInfo, [8 x %struct.WarpedMotionParams], %struct.SequenceHeader, ptr, ptr, %struct.CommonTileParams, ptr, %struct.CommonContexts, i32, [8 x i32], ptr, i32, [8 x i32], [8 x i8], i32, i32, i32, i32 }
%struct.CurrentFrame = type { i8, i8, i32, i32, i32, %struct.SkipModeInfo, i32, i32 }
%struct.SkipModeInfo = type { i32, i32, i32, i32 }
%struct.aom_internal_error_info = type { i32, i32, [200 x i8], i32, [1 x %struct.__jmp_buf_tag] }
%struct.__jmp_buf_tag = type { [8 x i64], i32, %struct.__sigset_t }
%struct.__sigset_t = type { [16 x i64] }
%struct.scale_factors = type { i32, i32, i32, i32, ptr, ptr }
%struct.FeatureFlags = type { i8, i8, i8, i8, i8, i8, i8, i8, i8, i8, i8, i8, i8, i8, i32, i32, i8 }
%struct.CommonModeInfoParams = type { i32, i32, i32, i32, i32, ptr, i32, i32, i8, ptr, i32, i32, ptr, ptr, ptr, ptr }
%struct.CommonQuantParams = type { i32, i32, i32, i32, i32, i32, [8 x [2 x i16]], [8 x [2 x i16]], [8 x [2 x i16]], [16 x [3 x [19 x ptr]]], [16 x [3 x [19 x ptr]]], [8 x [19 x ptr]], [8 x [19 x ptr]], [8 x [19 x ptr]], i8, i32, i32, i32 }
%struct.segmentation = type { i8, i8, i8, i8, [8 x [8 x i16]], [8 x i32], i32, i8 }
%struct.loop_filter_info_n = type { [64 x %struct.loop_filter_thresh], [3 x [8 x [2 x [8 x [2 x i8]]]]] }
%struct.loop_filter_thresh = type { [16 x i8], [16 x i8], [16 x i8] }
%struct.loopfilter = type { [2 x i32], i32, i32, i32, i8, i8, [8 x i8], [2 x i8], i32 }
%struct.RestorationInfo = type { i32, i32, i32, i32, i32, ptr, %struct.RestorationStripeBoundaries, i32 }
%struct.RestorationStripeBoundaries = type { ptr, ptr, i32, i32 }
%struct.CdefInfo = type { i32, i32, [16 x i32], [16 x i32], i32 }
%struct.aom_film_grain_t = type { i32, i32, [14 x [2 x i32]], i32, [10 x [2 x i32]], i32, [10 x [2 x i32]], i32, i32, i32, [24 x i32], [25 x i32], [25 x i32], i32, i32, i32, i32, i32, i32, i32, i32, i32, i32, i32, i32, i16 }
%struct.DeltaQInfo = type { i32, i32, i32, i32, i32 }
%struct.WarpedMotionParams = type { [8 x i32], i16, i16, i16, i16, i8, i8 }
%struct.SequenceHeader = type { i32, i32, i32, i32, i8, i32, i32, i8, i32, i32, %struct.OrderHintInfo, i8, i8, i8, i8, i8, i8, i8, i8, i8, i8, i8, i8, i8, i8, i32, i8, i8, i32, i32, i32, i32, i32, i32, i32, i8, i8, i32, [32 x i32], i32, %struct.aom_timing, i8, %struct.aom_dec_model_info, i8, [32 x i8], [32 x i8], [33 x %struct.aom_dec_model_op_parameters] }
%struct.OrderHintInfo = type { i32, i32, i32, i32 }
%struct.aom_timing = type { i32, i32, i32, i32 }
%struct.aom_dec_model_info = type { i32, i32, i32, i32 }
%struct.aom_dec_model_op_parameters = type { i32, i64, i64, i32, i32, i32, i32, i32 }
%struct.CommonTileParams = type { i32, i32, i32, i32, i32, i32, i32, i32, i32, i32, i32, i32, i32, i32, i32, [65 x i32], [65 x i32], i32, i32 }
%struct.CommonContexts = type { ptr, [3 x ptr], ptr, i32, i32, i32 }
%struct.AVxWorker = type { ptr, i32, ptr, ptr, ptr, ptr, i32 }
%struct.AV1LfSyncData = type { [3 x ptr], [3 x ptr], [3 x ptr], i32, i32, ptr, i32, ptr, ptr, i32, i32 }
%struct.AV1LrSyncData = type { [3 x ptr], [3 x ptr], [3 x ptr], i32, i32, i32, i32, ptr, ptr, ptr, i32, i32 }
%struct.AV1LrStruct = type { ptr, [3 x %struct.FilterFrameCtxt], ptr, ptr }
%struct.FilterFrameCtxt = type { ptr, i32, i32, i32, i32, i32, ptr, ptr, i32, i32, %struct.AV1PixelRect }
%struct.AV1PixelRect = type { i32, i32, i32, i32 }
%struct.ThreadData = type { %struct.DecoderCodingBlock, %struct.CB_BUFFER, ptr, [2 x ptr], i32, i32, ptr, [2 x ptr], ptr, ptr, ptr, ptr, ptr, ptr, [24 x i8] }
%struct.CB_BUFFER = type { [3 x [16384 x i32]], [3 x [1024 x %struct.eob_info]], [2 x [16384 x i8]] }
%struct.eob_info = type { i16, i16 }
%struct.TileBufferDec = type { ptr, i64 }
%struct.AV1DecTileMTData = type { ptr, ptr, i32, i32, i32, i32 }
%struct.DataBuffer = type { ptr, i64 }
%struct.EXTERNAL_REFERENCES = type { [128 x %struct.yv12_buffer_config], i32 }
%struct.yv12_buffer_config = type { %union.anon, %union.anon.0, %union.anon.2, %union.anon.4, %union.anon.6, %union.anon.8, i32, [3 x ptr], ptr, i32, ptr, i64, i32, i64, i32, i32, i32, i32, i32, i32, i8, i32, i32, i32, i32, i32, i32, ptr }
%union.anon = type { %struct.anon }
%struct.anon = type { i32, i32 }
%union.anon.0 = type { %struct.anon.1 }
%struct.anon.1 = type { i32, i32 }
%union.anon.2 = type { %struct.anon.3 }
%struct.anon.3 = type { i32, i32 }
%union.anon.4 = type { %struct.anon.5 }
%struct.anon.5 = type { i32, i32 }
%union.anon.6 = type { %struct.anon.7 }
%struct.anon.7 = type { i32, i32 }
%union.anon.8 = type { %struct.anon.9 }
%struct.anon.9 = type { ptr, ptr, ptr }
%struct.AV1DecRowMTInfo = type { i32, i32, i32, i32, i32, i32, i32, i32, i32, i32 }
%struct.aom_s_frame_info = type { i32, i32 }
%struct.AVxWorkerInterface = type { ptr, ptr, ptr, ptr, ptr, ptr }

@.str = private unnamed_addr constant [26 x i8] c"Failed to allocate cm->fc\00", align 1
@.str.1 = private unnamed_addr constant [45 x i8] c"Failed to allocate cm->default_frame_context\00", align 1
@.str.2 = private unnamed_addr constant [14 x i8] c"aom lf worker\00", align 1
@aom_once.lock = internal global i32 0, align 4

; Function Attrs: nounwind uwtable
define internal i32 @av1_num_planes(ptr noundef %0) #0 {
  %2 = alloca ptr, align 8
  store ptr %0, ptr %2, align 8
  %3 = load ptr, ptr %2, align 8
  %4 = getelementptr inbounds nuw %struct.AV1Common, ptr %3, i32 0, i32 37
  %5 = getelementptr inbounds nuw %struct.SequenceHeader, ptr %4, i32 0, i32 27
  %6 = load i8, ptr %5, align 1
  %7 = zext i8 %6 to i32
  %8 = icmp ne i32 %7, 0
  %9 = select i1 %8, i32 1, i32 3
  ret i32 %9
}

; Function Attrs: nounwind uwtable
define internal void @aom_once(ptr noundef %0) #0 {
  %2 = alloca ptr, align 8
  store ptr %0, ptr %2, align 8
  %3 = load ptr, ptr %2, align 8
  %4 = call i32 @pthread_once(ptr noundef @aom_once.lock, ptr noundef %3)
  ret void
}

; Function Attrs: nounwind uwtable
define hidden ptr @av1_decoder_create(ptr noundef %0) #0 {
  %2 = alloca ptr, align 8
  %3 = alloca ptr, align 8
  %4 = alloca ptr, align 8
  %5 = alloca ptr, align 8
  %6 = alloca i32, align 4
  store ptr %0, ptr %3, align 8
  %7 = call ptr @aom_memalign(i64 noundef 32, i64 noundef 458976)
  store volatile ptr %7, ptr %4, align 8
  %8 = load volatile ptr, ptr %4, align 8
  %9 = icmp ne ptr %8, null
  br i1 %9, label %11, label %10

10:                                               ; preds = %1
  store ptr null, ptr %2, align 8
  br label %115

11:                                               ; preds = %1
  %12 = load volatile ptr, ptr %4, align 8
  call void @llvm.memset.p0.i64(ptr align 32 %12, i8 0, i64 458976, i1 false)
  %13 = load volatile ptr, ptr %4, align 8
  %14 = getelementptr inbounds nuw %struct.AV1Decoder, ptr %13, i32 0, i32 1
  store volatile ptr %14, ptr %5, align 8
  %15 = load volatile ptr, ptr %5, align 8
  %16 = getelementptr inbounds nuw %struct.AV1Common, ptr %15, i32 0, i32 1
  %17 = getelementptr inbounds nuw %struct.aom_internal_error_info, ptr %16, i32 0, i32 4
  %18 = getelementptr inbounds [1 x %struct.__jmp_buf_tag], ptr %17, i64 0, i64 0
  %19 = call i32 @_setjmp(ptr noundef %18) #6
  %20 = icmp ne i32 %19, 0
  br i1 %20, label %21, label %26

21:                                               ; preds = %11
  %22 = load volatile ptr, ptr %5, align 8
  %23 = getelementptr inbounds nuw %struct.AV1Common, ptr %22, i32 0, i32 1
  %24 = getelementptr inbounds nuw %struct.aom_internal_error_info, ptr %23, i32 0, i32 3
  store i32 0, ptr %24, align 8
  %25 = load volatile ptr, ptr %4, align 8
  call void @av1_decoder_remove(ptr noundef %25)
  store ptr null, ptr %2, align 8
  br label %115

26:                                               ; preds = %11
  %27 = load volatile ptr, ptr %5, align 8
  %28 = getelementptr inbounds nuw %struct.AV1Common, ptr %27, i32 0, i32 1
  %29 = getelementptr inbounds nuw %struct.aom_internal_error_info, ptr %28, i32 0, i32 3
  store i32 1, ptr %29, align 8
  br label %30

30:                                               ; preds = %26
  %31 = call ptr @aom_memalign(i64 noundef 32, i64 noundef 21264)
  %32 = load volatile ptr, ptr %5, align 8
  %33 = getelementptr inbounds nuw %struct.AV1Common, ptr %32, i32 0, i32 38
  store ptr %31, ptr %33, align 16
  %34 = load volatile ptr, ptr %5, align 8
  %35 = getelementptr inbounds nuw %struct.AV1Common, ptr %34, i32 0, i32 38
  %36 = load ptr, ptr %35, align 16
  %37 = icmp ne ptr %36, null
  br i1 %37, label %41, label %38

38:                                               ; preds = %30
  %39 = load volatile ptr, ptr %5, align 8
  %40 = getelementptr inbounds nuw %struct.AV1Common, ptr %39, i32 0, i32 1
  call void (ptr, i32, ptr, ...) @aom_internal_error(ptr noundef %40, i32 noundef 2, ptr noundef @.str)
  br label %41

41:                                               ; preds = %38, %30
  br label %42

42:                                               ; preds = %41
  br label %43

43:                                               ; preds = %42
  %44 = call ptr @aom_memalign(i64 noundef 32, i64 noundef 21264)
  %45 = load volatile ptr, ptr %5, align 8
  %46 = getelementptr inbounds nuw %struct.AV1Common, ptr %45, i32 0, i32 39
  store ptr %44, ptr %46, align 8
  %47 = load volatile ptr, ptr %5, align 8
  %48 = getelementptr inbounds nuw %struct.AV1Common, ptr %47, i32 0, i32 39
  %49 = load ptr, ptr %48, align 8
  %50 = icmp ne ptr %49, null
  br i1 %50, label %54, label %51

51:                                               ; preds = %43
  %52 = load volatile ptr, ptr %5, align 8
  %53 = getelementptr inbounds nuw %struct.AV1Common, ptr %52, i32 0, i32 1
  call void (ptr, i32, ptr, ...) @aom_internal_error(ptr noundef %53, i32 noundef 2, ptr noundef @.str.1)
  br label %54

54:                                               ; preds = %51, %43
  br label %55

55:                                               ; preds = %54
  %56 = load volatile ptr, ptr %5, align 8
  %57 = getelementptr inbounds nuw %struct.AV1Common, ptr %56, i32 0, i32 38
  %58 = load ptr, ptr %57, align 16
  call void @llvm.memset.p0.i64(ptr align 4 %58, i8 0, i64 21264, i1 false)
  %59 = load volatile ptr, ptr %5, align 8
  %60 = getelementptr inbounds nuw %struct.AV1Common, ptr %59, i32 0, i32 39
  %61 = load ptr, ptr %60, align 8
  call void @llvm.memset.p0.i64(ptr align 4 %61, i8 0, i64 21264, i1 false)
  %62 = load volatile ptr, ptr %4, align 8
  %63 = getelementptr inbounds nuw %struct.AV1Decoder, ptr %62, i32 0, i32 22
  store i32 1, ptr %63, align 16
  call void @aom_once(ptr noundef @initialize_dec)
  store i32 0, ptr %6, align 4
  br label %64

64:                                               ; preds = %73, %55
  %65 = load i32, ptr %6, align 4
  %66 = icmp slt i32 %65, 8
  br i1 %66, label %67, label %76

67:                                               ; preds = %64
  %68 = load volatile ptr, ptr %5, align 8
  %69 = getelementptr inbounds nuw %struct.AV1Common, ptr %68, i32 0, i32 17
  %70 = load i32, ptr %6, align 4
  %71 = sext i32 %70 to i64
  %72 = getelementptr inbounds [8 x ptr], ptr %69, i64 0, i64 %71
  store ptr null, ptr %72, align 8
  br label %73

73:                                               ; preds = %67
  %74 = load i32, ptr %6, align 4
  %75 = add nsw i32 %74, 1
  store i32 %75, ptr %6, align 4
  br label %64, !llvm.loop !4

76:                                               ; preds = %64
  %77 = load volatile ptr, ptr %5, align 8
  %78 = getelementptr inbounds nuw %struct.AV1Common, ptr %77, i32 0, i32 0
  %79 = getelementptr inbounds nuw %struct.CurrentFrame, ptr %78, i32 0, i32 4
  store i32 0, ptr %79, align 4
  %80 = load volatile ptr, ptr %4, align 8
  %81 = getelementptr inbounds nuw %struct.AV1Decoder, ptr %80, i32 0, i32 18
  store i32 1, ptr %81, align 32
  %82 = load ptr, ptr %3, align 8
  %83 = load volatile ptr, ptr %4, align 8
  %84 = getelementptr inbounds nuw %struct.AV1Decoder, ptr %83, i32 0, i32 1
  %85 = getelementptr inbounds nuw %struct.AV1Common, ptr %84, i32 0, i32 41
  store ptr %82, ptr %85, align 16
  %86 = load volatile ptr, ptr %5, align 8
  %87 = getelementptr inbounds nuw %struct.AV1Common, ptr %86, i32 0, i32 37
  %88 = getelementptr inbounds nuw %struct.SequenceHeader, ptr %87, i32 0, i32 25
  store i32 8, ptr %88, align 8
  %89 = load volatile ptr, ptr %5, align 8
  %90 = getelementptr inbounds nuw %struct.AV1Common, ptr %89, i32 0, i32 22
  %91 = getelementptr inbounds nuw %struct.CommonModeInfoParams, ptr %90, i32 0, i32 13
  store ptr @dec_free_mi, ptr %91, align 8
  %92 = load volatile ptr, ptr %5, align 8
  %93 = getelementptr inbounds nuw %struct.AV1Common, ptr %92, i32 0, i32 22
  %94 = getelementptr inbounds nuw %struct.CommonModeInfoParams, ptr %93, i32 0, i32 14
  store ptr @dec_setup_mi, ptr %94, align 8
  %95 = load volatile ptr, ptr %5, align 8
  %96 = getelementptr inbounds nuw %struct.AV1Common, ptr %95, i32 0, i32 22
  %97 = getelementptr inbounds nuw %struct.CommonModeInfoParams, ptr %96, i32 0, i32 15
  store ptr @dec_set_mb_mi, ptr %97, align 8
  %98 = load volatile ptr, ptr %5, align 8
  call void @av1_loop_filter_init(ptr noundef %98)
  %99 = load volatile ptr, ptr %5, align 8
  %100 = getelementptr inbounds nuw %struct.AV1Common, ptr %99, i32 0, i32 23
  %101 = load volatile ptr, ptr %5, align 8
  %102 = call i32 @av1_num_planes(ptr noundef %101)
  call void @av1_qm_init(ptr noundef %100, i32 noundef %102)
  call void (...) @av1_loop_restoration_precal()
  %103 = load volatile ptr, ptr %5, align 8
  %104 = getelementptr inbounds nuw %struct.AV1Common, ptr %103, i32 0, i32 1
  %105 = getelementptr inbounds nuw %struct.aom_internal_error_info, ptr %104, i32 0, i32 3
  store i32 0, ptr %105, align 8
  %106 = call ptr @aom_get_worker_interface()
  %107 = getelementptr inbounds nuw %struct.AVxWorkerInterface, ptr %106, i32 0, i32 0
  %108 = load ptr, ptr %107, align 8
  %109 = load volatile ptr, ptr %4, align 8
  %110 = getelementptr inbounds nuw %struct.AV1Decoder, ptr %109, i32 0, i32 2
  call void %108(ptr noundef %110)
  %111 = load volatile ptr, ptr %4, align 8
  %112 = getelementptr inbounds nuw %struct.AV1Decoder, ptr %111, i32 0, i32 2
  %113 = getelementptr inbounds nuw %struct.AVxWorker, ptr %112, i32 0, i32 2
  store ptr @.str.2, ptr %113, align 16
  %114 = load volatile ptr, ptr %4, align 8
  store ptr %114, ptr %2, align 8
  br label %115

115:                                              ; preds = %76, %21, %10
  %116 = load ptr, ptr %2, align 8
  ret ptr %116
}