; Function Attrs: nounwind uwtable
define hidden ptr @av1_decoder_create(ptr noundef %0) local_unnamed_addr #0 {
  %2 = alloca ptr, align 8
  %3 = alloca ptr, align 8
  %4 = call ptr @aom_memalign(i64 noundef 32, i64 noundef 458976) #10
  store volatile ptr %4, ptr %2, align 8
  %.0..0..0..0.23 = load volatile ptr, ptr %2, align 8
  %.not = icmp eq ptr %.0..0..0..0.23, null
  br i1 %.not, label %51, label %5

5:                                                ; preds = %1
  %.0..0..0..0.24 = load volatile ptr, ptr %2, align 8
  call void @llvm.memset.p0.i64(ptr noundef nonnull align 32 dereferenceable(458976) %.0..0..0..0.24, i8 0, i64 458976, i1 false)
  %.0..0..0..0.25 = load volatile ptr, ptr %2, align 8
  %6 = getelementptr inbounds nuw i8, ptr %.0..0..0..0.25, i64 47968
  store volatile ptr %6, ptr %3, align 8
  %.0..0..0..0. = load volatile ptr, ptr %3, align 8
  %7 = getelementptr inbounds i8, ptr %.0..0..0..0., i64 256
  %8 = call i32 @_setjmp(ptr noundef nonnull %7) #11
  %.not36 = icmp eq i32 %8, 0
  %.0..0..0..0.4 = load volatile ptr, ptr %3, align 8
  %9 = getelementptr inbounds i8, ptr %.0..0..0..0.4, i64 248
  br i1 %.not36, label %11, label %10

10:                                               ; preds = %5
  store i32 0, ptr %9, align 8
  %.0..0..0..0.26 = load volatile ptr, ptr %2, align 8
  call void @av1_decoder_remove(ptr noundef %.0..0..0..0.26)
  br label %51

11:                                               ; preds = %5
  store i32 1, ptr %9, align 8
  %12 = call ptr @aom_memalign(i64 noundef 32, i64 noundef 21264) #10
  %.0..0..0..0.5 = load volatile ptr, ptr %3, align 8
  %13 = getelementptr inbounds nuw i8, ptr %.0..0..0..0.5, i64 27120
  store ptr %12, ptr %13, align 16
  %.0..0..0..0.6 = load volatile ptr, ptr %3, align 8
  %14 = getelementptr inbounds nuw i8, ptr %.0..0..0..0.6, i64 27120
  %15 = load ptr, ptr %14, align 16
  %.not37 = icmp eq ptr %15, null
  br i1 %.not37, label %16, label %18

16:                                               ; preds = %11
  %.0..0..0..0.7 = load volatile ptr, ptr %3, align 8
  %17 = getelementptr inbounds nuw i8, ptr %.0..0..0..0.7, i64 40
  call void (ptr, i32, ptr, ...) @aom_internal_error(ptr noundef nonnull %17, i32 noundef 2, ptr noundef nonnull @.str) #10
  br label %18

18:                                               ; preds = %16, %11
  %19 = call ptr @aom_memalign(i64 noundef 32, i64 noundef 21264) #10
  %.0..0..0..0.8 = load volatile ptr, ptr %3, align 8
  %20 = getelementptr inbounds nuw i8, ptr %.0..0..0..0.8, i64 27128
  store ptr %19, ptr %20, align 8
  %.0..0..0..0.9 = load volatile ptr, ptr %3, align 8
  %21 = getelementptr inbounds nuw i8, ptr %.0..0..0..0.9, i64 27128
  %22 = load ptr, ptr %21, align 8
  %.not38 = icmp eq ptr %22, null
  br i1 %.not38, label %23, label %25

23:                                               ; preds = %18
  %.0..0..0..0.10 = load volatile ptr, ptr %3, align 8
  %24 = getelementptr inbounds nuw i8, ptr %.0..0..0..0.10, i64 40
  call void (ptr, i32, ptr, ...) @aom_internal_error(ptr noundef nonnull %24, i32 noundef 2, ptr noundef nonnull @.str.1) #10
  br label %25

25:                                               ; preds = %18, %23
  %.0..0..0..0.11 = load volatile ptr, ptr %3, align 8
  %26 = getelementptr inbounds nuw i8, ptr %.0..0..0..0.11, i64 27120
  %27 = load ptr, ptr %26, align 16
  call void @llvm.memset.p0.i64(ptr noundef nonnull align 4 dereferenceable(21264) %27, i8 0, i64 21264, i1 false)
  %.0..0..0..0.12 = load volatile ptr, ptr %3, align 8
  %28 = getelementptr inbounds nuw i8, ptr %.0..0..0..0.12, i64 27128
  %29 = load ptr, ptr %28, align 8
  call void @llvm.memset.p0.i64(ptr noundef nonnull align 4 dereferenceable(21264) %29, i8 0, i64 21264, i1 false)
  %.0..0..0..0.27 = load volatile ptr, ptr %2, align 8
  %30 = getelementptr inbounds nuw i8, ptr %.0..0..0..0.27, i64 431856
  store i32 1, ptr %30, align 16
  %31 = call i32 @pthread_once(ptr noundef nonnull @aom_once.lock, ptr noundef nonnull @initialize_dec) #10
  br label %32

32:                                               ; preds = %25, %32
  %indvars.iv = phi i64 [ 0, %25 ], [ %indvars.iv.next, %32 ]
  %.0..0..0..0.13 = load volatile ptr, ptr %3, align 8
  %33 = getelementptr inbounds nuw i8, ptr %.0..0..0..0.13, i64 960
  %34 = getelementptr inbounds [8 x ptr], ptr %33, i64 0, i64 %indvars.iv
  store ptr null, ptr %34, align 8
  %indvars.iv.next = add nuw nsw i64 %indvars.iv, 1
  %exitcond.not = icmp eq i64 %indvars.iv.next, 8
  br i1 %exitcond.not, label %35, label %32, !llvm.loop !4

35:                                               ; preds = %32
  %.0..0..0..0.14 = load volatile ptr, ptr %3, align 8
  %36 = getelementptr inbounds nuw i8, ptr %.0..0..0..0.14, i64 12
  store i32 0, ptr %36, align 4
  %.0..0..0..0.28 = load volatile ptr, ptr %2, align 8
  %37 = getelementptr inbounds nuw i8, ptr %.0..0..0..0.28, i64 431840
  store i32 1, ptr %37, align 32
  %.0..0..0..0.29 = load volatile ptr, ptr %2, align 8
  %38 = getelementptr inbounds i8, ptr %.0..0..0..0.29, i64 75696
  store ptr %0, ptr %38, align 16
  %.0..0..0..0.15 = load volatile ptr, ptr %3, align 8
  %39 = getelementptr inbounds i8, ptr %.0..0..0..0.15, i64 25256
  store i32 8, ptr %39, align 8
  %.0..0..0..0.16 = load volatile ptr, ptr %3, align 8
  %40 = getelementptr inbounds i8, ptr %.0..0..0..0.16, i64 1136
  store ptr @dec_free_mi, ptr %40, align 8
  %.0..0..0..0.17 = load volatile ptr, ptr %3, align 8
  %41 = getelementptr inbounds i8, ptr %.0..0..0..0.17, i64 1144
  store ptr @dec_setup_mi, ptr %41, align 8
  %.0..0..0..0.18 = load volatile ptr, ptr %3, align 8
  %42 = getelementptr inbounds i8, ptr %.0..0..0..0.18, i64 1152
  store ptr @dec_set_mb_mi, ptr %42, align 8
  %.0..0..0..0.19 = load volatile ptr, ptr %3, align 8
  call void @av1_loop_filter_init(ptr noundef %.0..0..0..0.19) #10
  %.0..0..0..0.20 = load volatile ptr, ptr %3, align 8
  %43 = getelementptr inbounds nuw i8, ptr %.0..0..0..0.20, i64 1160
  %.0..0..0..0.21 = load volatile ptr, ptr %3, align 8
  %44 = getelementptr i8, ptr %.0..0..0..0.21, i64 25261
  %.0.21.val = load i8, ptr %44, align 1
  %.not.i = icmp eq i8 %.0.21.val, 0
  %45 = select i1 %.not.i, i32 3, i32 1
  call void @av1_qm_init(ptr noundef nonnull %43, i32 noundef %45) #10
  call void (...) @av1_loop_restoration_precal() #10
  %.0..0..0..0.22 = load volatile ptr, ptr %3, align 8
  %46 = getelementptr inbounds i8, ptr %.0..0..0..0.22, i64 248
  store i32 0, ptr %46, align 8
  %47 = call ptr @aom_get_worker_interface() #10
  %48 = load ptr, ptr %47, align 8
  %.0..0..0..0.30 = load volatile ptr, ptr %2, align 8
  %49 = getelementptr inbounds nuw i8, ptr %.0..0..0..0.30, i64 75872
  call void %48(ptr noundef nonnull %49) #10
  %.0..0..0..0.31 = load volatile ptr, ptr %2, align 8
  %50 = getelementptr inbounds i8, ptr %.0..0..0..0.31, i64 75888
  store ptr @.str.2, ptr %50, align 16
  %.0..0..0..0.32 = load volatile ptr, ptr %2, align 8
  br label %51

51:                                               ; preds = %1, %35, %10
  %.035 = phi ptr [ null, %10 ], [ %.0..0..0..0.32, %35 ], [ null, %1 ]
  ret ptr %.035
}